target datalayout = "e-m:e-p270:32:32-p271:32:32-p272:64:64-i64:64-i128:128-f80:128-n8:16:32:64-S128"
target triple = "x86_64-pc-linux-gnu"

%struct.TParser = type { ptr, i32, ptr, ptr, i8, i32, ptr, i8, i8, i8, ptr, i32, i32, i32 }
%struct.TParserPosition = type { i32, i32, i32, i32, i32, i32, ptr, ptr }

; Function Attrs: nounwind uwtable
define internal void @SpecialVerVersion(ptr noundef %0) #0 {
  %2 = alloca ptr, align 8
  store ptr %0, ptr %2, align 8
  %3 = load ptr, ptr %2, align 8
  %4 = getelementptr inbounds nuw %struct.TParser, ptr %3, i32 0, i32 6
  %5 = load ptr, ptr %4, align 8
  %6 = getelementptr inbounds nuw %struct.TParserPosition, ptr %5, i32 0, i32 3
  %7 = load i32, ptr %6, align 4
  %8 = load ptr, ptr %2, align 8
  %9 = getelementptr inbounds nuw %struct.TParser, ptr %8, i32 0, i32 6
  %10 = load ptr, ptr %9, align 8
  %11 = getelementptr inbounds nuw %struct.TParserPosition, ptr %10, i32 0, i32 0
  %12 = load i32, ptr %11, align 8
  %13 = sub i32 %12, %7
  store i32 %13, ptr %11, align 8
  %14 = load ptr, ptr %2, align 8
  %15 = getelementptr inbounds nuw %struct.TParser, ptr %14, i32 0, i32 6
  %16 = load ptr, ptr %15, align 8
  %17 = getelementptr inbounds nuw %struct.TParserPosition, ptr %16, i32 0, i32 4
  %18 = load i32, ptr %17, align 8
  %19 = load ptr, ptr %2, align 8
  %20 = getelementptr inbounds nuw %struct.TParser, ptr %19, i32 0, i32 6
  %21 = load ptr, ptr %20, align 8
  %22 = getelementptr inbounds nuw %struct.TParserPosition, ptr %21, i32 0, i32 1
  %23 = load i32, ptr %22, align 4
  %24 = sub i32 %23, %18
  store i32 %24, ptr %22, align 4
  %25 = load ptr, ptr %2, align 8
  %26 = getelementptr inbounds nuw %struct.TParser, ptr %25, i32 0, i32 6
  %27 = load ptr, ptr %26, align 8
  %28 = getelementptr inbounds nuw %struct.TParserPosition, ptr %27, i32 0, i32 3
  store i32 0, ptr %28, align 4
  %29 = load ptr, ptr %2, align 8
  %30 = getelementptr inbounds nuw %struct.TParser, ptr %29, i32 0, i32 6
  %31 = load ptr, ptr %30, align 8
  %32 = getelementptr inbounds nuw %struct.TParserPosition, ptr %31, i32 0, i32 4
  store i32 0, ptr %32, align 8
  ret void
}